SF:/home/peter/Documents/rust/rust-load-tester/endpoint_tester/src/lib.rs
FN:235,_RNCNCNvCs3o8qMhVS9hq_15endpoint_tester3run00CsfdjG8oCL8wh_8coverage
FN:249,_RNCNCNvCs3o8qMhVS9hq_15endpoint_tester3run0s0_0CsfdjG8oCL8wh_8coverage
FN:252,_RNCNCNvCs3o8qMhVS9hq_15endpoint_tester3run0s1_0CsfdjG8oCL8wh_8coverage
FN:260,_RNCNCNvCs3o8qMhVS9hq_15endpoint_tester3run0s2_0CsfdjG8oCL8wh_8coverage
FN:285,_RNCNCNvCs3o8qMhVS9hq_15endpoint_tester3run0s3_0CsfdjG8oCL8wh_8coverage
FN:304,_RNCNCNvCs3o8qMhVS9hq_15endpoint_tester3run0s4_0CsfdjG8oCL8wh_8coverage
FN:239,_RNCNCNvCs3o8qMhVS9hq_15endpoint_tester3run0s_0CsfdjG8oCL8wh_8coverage
FN:233,_RNCNvCs3o8qMhVS9hq_15endpoint_tester3run0CsfdjG8oCL8wh_8coverage
FN:66,_RNvCs3o8qMhVS9hq_15endpoint_tester10main_entry
FN:481,_RNvCs3o8qMhVS9hq_15endpoint_tester12parse_header
FN:391,_RNvCs3o8qMhVS9hq_15endpoint_tester13render_report
FN:495,_RNvCs3o8qMhVS9hq_15endpoint_tester14parse_duration
FN:523,_RNvCs3o8qMhVS9hq_15endpoint_tester17load_json_payload
FN:466,_RNvCs3o8qMhVS9hq_15endpoint_tester17parse_http_method
FN:215,_RNvCs3o8qMhVS9hq_15endpoint_tester22classify_reqwest_error
FN:233,_RNvCs3o8qMhVS9hq_15endpoint_tester3run
FN:178,_RNvMs0_Cs3o8qMhVS9hq_15endpoint_testerNtB5_12NetErrCounts5total
FN:167,_RNvMs0_Cs3o8qMhVS9hq_15endpoint_testerNtB5_12NetErrCounts6record
FN:206,_RNvMs1_Cs3o8qMhVS9hq_15endpoint_testerNtB5_10Aggregates12record_error
FN:201,_RNvMs1_Cs3o8qMhVS9hq_15endpoint_testerNtB5_10Aggregates13record_status
FN:210,_RNvMs1_Cs3o8qMhVS9hq_15endpoint_testerNtB5_10Aggregates14record_latency
FN:192,_RNvMs1_Cs3o8qMhVS9hq_15endpoint_testerNtB5_10Aggregates3new
FN:144,_RNvMs_Cs3o8qMhVS9hq_15endpoint_testerNtB4_17StatusClassCounts6record
FN:90,_RNvXCs3o8qMhVS9hq_15endpoint_testerNtB2_7RunArgsINtNtCs66KPHxksi63_4core7convert4FromNtB2_4ArgsE4from
FN:530,_RNCNvCs3o8qMhVS9hq_15endpoint_tester17load_json_payload0B3_
FN:537,_RNCNvCs3o8qMhVS9hq_15endpoint_tester17load_json_payloads0_0B3_
FN:535,_RNCNvCs3o8qMhVS9hq_15endpoint_tester17load_json_payloads_0B3_
FN:235,_RNCNCNvCs3o8qMhVS9hq_15endpoint_tester3run00Cs491OE7T6KyJ_3e2e
FN:249,_RNCNCNvCs3o8qMhVS9hq_15endpoint_tester3run0s0_0Cs491OE7T6KyJ_3e2e
FN:252,_RNCNCNvCs3o8qMhVS9hq_15endpoint_tester3run0s1_0Cs491OE7T6KyJ_3e2e
FN:260,_RNCNCNvCs3o8qMhVS9hq_15endpoint_tester3run0s2_0Cs491OE7T6KyJ_3e2e
FN:285,_RNCNCNvCs3o8qMhVS9hq_15endpoint_tester3run0s3_0Cs491OE7T6KyJ_3e2e
FN:304,_RNCNCNvCs3o8qMhVS9hq_15endpoint_tester3run0s4_0Cs491OE7T6KyJ_3e2e
FN:239,_RNCNCNvCs3o8qMhVS9hq_15endpoint_tester3run0s_0Cs491OE7T6KyJ_3e2e
FN:233,_RNCNvCs3o8qMhVS9hq_15endpoint_tester3run0Cs491OE7T6KyJ_3e2e
FN:235,_RNCNCNvCs5tFP2Hks8vj_15endpoint_tester3run00B5_
FN:249,_RNCNCNvCs5tFP2Hks8vj_15endpoint_tester3run0s0_0B5_
FN:252,_RNCNCNvCs5tFP2Hks8vj_15endpoint_tester3run0s1_0B5_
FN:260,_RNCNCNvCs5tFP2Hks8vj_15endpoint_tester3run0s2_0B5_
FN:285,_RNCNCNvCs5tFP2Hks8vj_15endpoint_tester3run0s3_0B5_
FN:304,_RNCNCNvCs5tFP2Hks8vj_15endpoint_tester3run0s4_0B5_
FN:239,_RNCNCNvCs5tFP2Hks8vj_15endpoint_tester3run0s_0B5_
FN:66,_RNCNvCs5tFP2Hks8vj_15endpoint_tester10main_entry0B3_
FN:530,_RNCNvCs5tFP2Hks8vj_15endpoint_tester17load_json_payload0B3_
FN:537,_RNCNvCs5tFP2Hks8vj_15endpoint_tester17load_json_payloads0_0B3_
FN:535,_RNCNvCs5tFP2Hks8vj_15endpoint_tester17load_json_payloads_0B3_
FN:233,_RNCNvCs5tFP2Hks8vj_15endpoint_tester3run0B3_
FN:66,_RNvCs5tFP2Hks8vj_15endpoint_tester10main_entry
FN:481,_RNvCs5tFP2Hks8vj_15endpoint_tester12parse_header
FN:391,_RNvCs5tFP2Hks8vj_15endpoint_tester13render_report
FN:495,_RNvCs5tFP2Hks8vj_15endpoint_tester14parse_duration
FN:523,_RNvCs5tFP2Hks8vj_15endpoint_tester17load_json_payload
FN:466,_RNvCs5tFP2Hks8vj_15endpoint_tester17parse_http_method
FN:215,_RNvCs5tFP2Hks8vj_15endpoint_tester22classify_reqwest_error
FN:233,_RNvCs5tFP2Hks8vj_15endpoint_tester3run
FN:178,_RNvMs0_Cs5tFP2Hks8vj_15endpoint_testerNtB5_12NetErrCounts5total
FN:167,_RNvMs0_Cs5tFP2Hks8vj_15endpoint_testerNtB5_12NetErrCounts6record
FN:206,_RNvMs1_Cs5tFP2Hks8vj_15endpoint_testerNtB5_10Aggregates12record_error
FN:201,_RNvMs1_Cs5tFP2Hks8vj_15endpoint_testerNtB5_10Aggregates13record_status
FN:210,_RNvMs1_Cs5tFP2Hks8vj_15endpoint_testerNtB5_10Aggregates14record_latency
FN:192,_RNvMs1_Cs5tFP2Hks8vj_15endpoint_testerNtB5_10Aggregates3new
FN:144,_RNvMs_Cs5tFP2Hks8vj_15endpoint_testerNtB4_17StatusClassCounts6record
FN:90,_RNvXCs5tFP2Hks8vj_15endpoint_testerNtB2_7RunArgsINtNtCs66KPHxksi63_4core7convert4FromNtB2_4ArgsE4from
FN:235,_RNCNCNvCs3o8qMhVS9hq_15endpoint_tester3run00Csj4S3alzkeWT_15endpoint_tester
FN:249,_RNCNCNvCs3o8qMhVS9hq_15endpoint_tester3run0s0_0Csj4S3alzkeWT_15endpoint_tester
FN:252,_RNCNCNvCs3o8qMhVS9hq_15endpoint_tester3run0s1_0Csj4S3alzkeWT_15endpoint_tester
FN:260,_RNCNCNvCs3o8qMhVS9hq_15endpoint_tester3run0s2_0Csj4S3alzkeWT_15endpoint_tester
FN:285,_RNCNCNvCs3o8qMhVS9hq_15endpoint_tester3run0s3_0Csj4S3alzkeWT_15endpoint_tester
FN:304,_RNCNCNvCs3o8qMhVS9hq_15endpoint_tester3run0s4_0Csj4S3alzkeWT_15endpoint_tester
FN:239,_RNCNCNvCs3o8qMhVS9hq_15endpoint_tester3run0s_0Csj4S3alzkeWT_15endpoint_tester
FN:66,_RNCNvCs3o8qMhVS9hq_15endpoint_tester10main_entry0Csj4S3alzkeWT_15endpoint_tester
FN:233,_RNCNvCs3o8qMhVS9hq_15endpoint_tester3run0Csj4S3alzkeWT_15endpoint_tester
FNDA:1,_RNCNCNvCs3o8qMhVS9hq_15endpoint_tester3run00CsfdjG8oCL8wh_8coverage
FNDA:1,_RNCNCNvCs3o8qMhVS9hq_15endpoint_tester3run0s0_0CsfdjG8oCL8wh_8coverage
FNDA:1,_RNCNCNvCs3o8qMhVS9hq_15endpoint_tester3run0s1_0CsfdjG8oCL8wh_8coverage
FNDA:1,_RNCNCNvCs3o8qMhVS9hq_15endpoint_tester3run0s2_0CsfdjG8oCL8wh_8coverage
FNDA:0,_RNCNCNvCs3o8qMhVS9hq_15endpoint_tester3run0s3_0CsfdjG8oCL8wh_8coverage
FNDA:1,_RNCNCNvCs3o8qMhVS9hq_15endpoint_tester3run0s4_0CsfdjG8oCL8wh_8coverage
FNDA:1,_RNCNCNvCs3o8qMhVS9hq_15endpoint_tester3run0s_0CsfdjG8oCL8wh_8coverage
FNDA:8,_RNCNvCs3o8qMhVS9hq_15endpoint_tester3run0CsfdjG8oCL8wh_8coverage
FNDA:0,_RNvCs3o8qMhVS9hq_15endpoint_tester10main_entry
FNDA:6,_RNvCs3o8qMhVS9hq_15endpoint_tester12parse_header
FNDA:1,_RNvCs3o8qMhVS9hq_15endpoint_tester13render_report
FNDA:18,_RNvCs3o8qMhVS9hq_15endpoint_tester14parse_duration
FNDA:6,_RNvCs3o8qMhVS9hq_15endpoint_tester17load_json_payload
FNDA:14,_RNvCs3o8qMhVS9hq_15endpoint_tester17parse_http_method
FNDA:11,_RNvCs3o8qMhVS9hq_15endpoint_tester22classify_reqwest_error
FNDA:12,_RNvCs3o8qMhVS9hq_15endpoint_tester3run
FNDA:2,_RNvMs0_Cs3o8qMhVS9hq_15endpoint_testerNtB5_12NetErrCounts5total
FNDA:16,_RNvMs0_Cs3o8qMhVS9hq_15endpoint_testerNtB5_12NetErrCounts6record
FNDA:13,_RNvMs1_Cs3o8qMhVS9hq_15endpoint_testerNtB5_10Aggregates12record_error
FNDA:108,_RNvMs1_Cs3o8qMhVS9hq_15endpoint_testerNtB5_10Aggregates13record_status
FNDA:118,_RNvMs1_Cs3o8qMhVS9hq_15endpoint_testerNtB5_10Aggregates14record_latency
FNDA:7,_RNvMs1_Cs3o8qMhVS9hq_15endpoint_testerNtB5_10Aggregates3new
FNDA:114,_RNvMs_Cs3o8qMhVS9hq_15endpoint_testerNtB4_17StatusClassCounts6record
FNDA:0,_RNvXCs3o8qMhVS9hq_15endpoint_testerNtB2_7RunArgsINtNtCs66KPHxksi63_4core7convert4FromNtB2_4ArgsE4from
FNDA:0,_RNCNvCs3o8qMhVS9hq_15endpoint_tester17load_json_payload0B3_
FNDA:0,_RNCNvCs3o8qMhVS9hq_15endpoint_tester17load_json_payloads0_0B3_
FNDA:0,_RNCNvCs3o8qMhVS9hq_15endpoint_tester17load_json_payloads_0B3_
FNDA:0,_RNCNCNvCs3o8qMhVS9hq_15endpoint_tester3run00Cs491OE7T6KyJ_3e2e
FNDA:0,_RNCNCNvCs3o8qMhVS9hq_15endpoint_tester3run0s0_0Cs491OE7T6KyJ_3e2e
FNDA:0,_RNCNCNvCs3o8qMhVS9hq_15endpoint_tester3run0s1_0Cs491OE7T6KyJ_3e2e
FNDA:0,_RNCNCNvCs3o8qMhVS9hq_15endpoint_tester3run0s2_0Cs491OE7T6KyJ_3e2e
FNDA:0,_RNCNCNvCs3o8qMhVS9hq_15endpoint_tester3run0s3_0Cs491OE7T6KyJ_3e2e
FNDA:11,_RNCNCNvCs3o8qMhVS9hq_15endpoint_tester3run0s4_0Cs491OE7T6KyJ_3e2e
FNDA:0,_RNCNCNvCs3o8qMhVS9hq_15endpoint_tester3run0s_0Cs491OE7T6KyJ_3e2e
FNDA:4,_RNCNvCs3o8qMhVS9hq_15endpoint_tester3run0Cs491OE7T6KyJ_3e2e
FNDA:0,_RNCNCNvCs5tFP2Hks8vj_15endpoint_tester3run00B5_
FNDA:0,_RNCNCNvCs5tFP2Hks8vj_15endpoint_tester3run0s0_0B5_
FNDA:0,_RNCNCNvCs5tFP2Hks8vj_15endpoint_tester3run0s1_0B5_
FNDA:0,_RNCNCNvCs5tFP2Hks8vj_15endpoint_tester3run0s2_0B5_
FNDA:0,_RNCNCNvCs5tFP2Hks8vj_15endpoint_tester3run0s3_0B5_
FNDA:0,_RNCNCNvCs5tFP2Hks8vj_15endpoint_tester3run0s4_0B5_
FNDA:0,_RNCNCNvCs5tFP2Hks8vj_15endpoint_tester3run0s_0B5_
FNDA:0,_RNCNvCs5tFP2Hks8vj_15endpoint_tester10main_entry0B3_
FNDA:0,_RNCNvCs5tFP2Hks8vj_15endpoint_tester17load_json_payload0B3_
FNDA:0,_RNCNvCs5tFP2Hks8vj_15endpoint_tester17load_json_payloads0_0B3_
FNDA:0,_RNCNvCs5tFP2Hks8vj_15endpoint_tester17load_json_payloads_0B3_
FNDA:0,_RNCNvCs5tFP2Hks8vj_15endpoint_tester3run0B3_
FNDA:0,_RNvCs5tFP2Hks8vj_15endpoint_tester10main_entry
FNDA:0,_RNvCs5tFP2Hks8vj_15endpoint_tester12parse_header
FNDA:0,_RNvCs5tFP2Hks8vj_15endpoint_tester13render_report
FNDA:0,_RNvCs5tFP2Hks8vj_15endpoint_tester14parse_duration
FNDA:0,_RNvCs5tFP2Hks8vj_15endpoint_tester17load_json_payload
FNDA:0,_RNvCs5tFP2Hks8vj_15endpoint_tester17parse_http_method
FNDA:0,_RNvCs5tFP2Hks8vj_15endpoint_tester22classify_reqwest_error
FNDA:0,_RNvCs5tFP2Hks8vj_15endpoint_tester3run
FNDA:0,_RNvMs0_Cs5tFP2Hks8vj_15endpoint_testerNtB5_12NetErrCounts5total
FNDA:0,_RNvMs0_Cs5tFP2Hks8vj_15endpoint_testerNtB5_12NetErrCounts6record
FNDA:0,_RNvMs1_Cs5tFP2Hks8vj_15endpoint_testerNtB5_10Aggregates12record_error
FNDA:0,_RNvMs1_Cs5tFP2Hks8vj_15endpoint_testerNtB5_10Aggregates13record_status
FNDA:0,_RNvMs1_Cs5tFP2Hks8vj_15endpoint_testerNtB5_10Aggregates14record_latency
FNDA:0,_RNvMs1_Cs5tFP2Hks8vj_15endpoint_testerNtB5_10Aggregates3new
FNDA:0,_RNvMs_Cs5tFP2Hks8vj_15endpoint_testerNtB4_17StatusClassCounts6record
FNDA:0,_RNvXCs5tFP2Hks8vj_15endpoint_testerNtB2_7RunArgsINtNtCs66KPHxksi63_4core7convert4FromNtB2_4ArgsE4from
FNDA:0,_RNCNCNvCs3o8qMhVS9hq_15endpoint_tester3run00Csj4S3alzkeWT_15endpoint_tester
FNDA:0,_RNCNCNvCs3o8qMhVS9hq_15endpoint_tester3run0s0_0Csj4S3alzkeWT_15endpoint_tester
FNDA:0,_RNCNCNvCs3o8qMhVS9hq_15endpoint_tester3run0s1_0Csj4S3alzkeWT_15endpoint_tester
FNDA:0,_RNCNCNvCs3o8qMhVS9hq_15endpoint_tester3run0s2_0Csj4S3alzkeWT_15endpoint_tester
FNDA:0,_RNCNCNvCs3o8qMhVS9hq_15endpoint_tester3run0s3_0Csj4S3alzkeWT_15endpoint_tester
FNDA:0,_RNCNCNvCs3o8qMhVS9hq_15endpoint_tester3run0s4_0Csj4S3alzkeWT_15endpoint_tester
FNDA:0,_RNCNCNvCs3o8qMhVS9hq_15endpoint_tester3run0s_0Csj4S3alzkeWT_15endpoint_tester
FNDA:0,_RNCNvCs3o8qMhVS9hq_15endpoint_tester10main_entry0Csj4S3alzkeWT_15endpoint_tester
FNDA:0,_RNCNvCs3o8qMhVS9hq_15endpoint_tester3run0Csj4S3alzkeWT_15endpoint_tester
FNF:28
FNH:21
DA:66,0
DA:67,0
DA:68,0
DA:69,0
DA:70,0
DA:71,0
DA:72,0
DA:90,0
DA:91,0
DA:92,0
DA:93,0
DA:94,0
DA:95,0
DA:96,0
DA:97,0
DA:98,0
DA:99,0
DA:100,0
DA:101,0
DA:102,0
DA:103,0
DA:104,0
DA:144,114
DA:145,114
DA:146,0
DA:147,59
DA:148,1
DA:149,1
DA:150,53
DA:151,0
DA:153,114
DA:167,16
DA:168,16
DA:169,14
DA:170,2
DA:171,0
DA:172,0
DA:173,0
DA:174,0
DA:176,16
DA:178,2
DA:179,2
DA:180,2
DA:192,7
DA:194,7
DA:195,7
DA:196,7
DA:197,7
DA:199,7
DA:201,108
DA:202,108
DA:203,108
DA:204,108
DA:206,13
DA:207,13
DA:208,13
DA:210,118
DA:211,118
DA:212,118
DA:215,11
DA:216,11
DA:217,10
DA:218,1
DA:219,1
DA:220,0
DA:221,0
DA:222,0
DA:223,0
DA:224,0
DA:225,0
DA:227,0
DA:229,11
DA:233,12
DA:235,12
DA:238,11
DA:239,11
DA:241,10
DA:242,1
DA:243,1
DA:244,1
DA:245,9
DA:248,9
DA:249,9
DA:251,8
DA:252,1
DA:254,7
DA:258,7
DA:259,8
DA:260,2
DA:261,1
DA:262,1
DA:263,1
DA:265,6
DA:266,0
DA:267,6
DA:270,6
DA:273,5
DA:274,5
DA:275,5
DA:276,5
DA:279,5
DA:280,5
DA:281,5
DA:282,5
DA:284,5
DA:285,5
DA:287,5
DA:288,5
DA:290,5
DA:291,12
DA:292,12
DA:293,12
DA:294,12
DA:295,12
DA:296,12
DA:297,12
DA:298,12
DA:299,12
DA:300,12
DA:301,12
DA:302,12
DA:304,12
DA:306,128
DA:307,7
DA:308,121
DA:310,121
DA:311,0
DA:312,0
DA:313,0
DA:314,0
DA:315,121
DA:318,121
DA:319,121
DA:320,121
DA:321,5
DA:322,5
DA:323,116
DA:325,116
DA:326,116
DA:327,116
DA:329,0
DA:330,116
DA:331,0
DA:332,0
DA:333,0
DA:335,116
DA:336,116
DA:338,121
DA:339,5
DA:340,5
DA:341,116
DA:342,5
DA:343,111
DA:345,116
DA:346,116
DA:348,116
DA:349,116
DA:351,116
DA:352,105
DA:353,11
DA:356,116
DA:358,116
DA:359,116
DA:360,0
DA:361,116
DA:363,12
DA:366,17
DA:367,12
DA:370,5
DA:371,5
DA:372,5
DA:375,5
DA:376,5
DA:377,5
DA:378,5
DA:379,5
DA:380,5
DA:381,5
DA:382,5
DA:383,5
DA:384,5
DA:385,5
DA:386,5
DA:387,12
DA:391,1
DA:392,1
DA:393,1
DA:394,1
DA:395,1
DA:396,1
DA:397,1
DA:398,1
DA:399,1
DA:400,1
DA:401,0
DA:402,1
DA:403,1
DA:405,1
DA:406,1
DA:407,1
DA:408,1
DA:409,1
DA:410,1
DA:411,1
DA:412,1
DA:413,1
DA:414,1
DA:416,1
DA:417,1
DA:418,1
DA:419,1
DA:420,1
DA:421,1
DA:422,1
DA:424,1
DA:425,1
DA:426,0
DA:427,0
DA:428,1
DA:430,1
DA:431,1
DA:432,1
DA:433,1
DA:434,1
DA:435,1
DA:436,1
DA:437,1
DA:439,1
DA:440,1
DA:441,1
DA:442,1
DA:443,1
DA:444,1
DA:445,1
DA:446,1
DA:447,1
DA:448,1
DA:449,1
DA:450,1
DA:451,1
DA:452,1
DA:453,1
DA:454,1
DA:455,1
DA:456,1
DA:457,1
DA:458,1
DA:459,1
DA:460,1
DA:461,1
DA:462,1
DA:466,14
DA:467,14
DA:468,14
DA:469,5
DA:470,2
DA:471,2
DA:472,2
DA:473,2
DA:474,2
DA:475,2
DA:476,2
DA:477,2
DA:479,14
DA:481,6
DA:482,6
DA:483,6
DA:484,2
DA:485,4
DA:486,4
DA:487,4
DA:488,4
DA:489,1
DA:490,3
DA:491,3
DA:492,6
DA:495,18
DA:496,18
DA:497,18
DA:498,1
DA:499,17
DA:501,17
DA:502,3
DA:503,14
DA:504,8
DA:505,6
DA:506,1
DA:507,5
DA:508,1
DA:510,4
DA:513,13
DA:514,12
DA:515,12
DA:516,9
DA:517,2
DA:518,1
DA:519,0
DA:521,18
DA:523,6
DA:524,6
DA:525,1
DA:526,1
DA:527,1
DA:528,1
DA:529,1
DA:530,1
DA:531,1
DA:533,0
DA:534,0
DA:535,0
DA:536,0
DA:537,0
DA:538,0
DA:540,4
DA:542,6
BRF:0
BRH:0
LF:328
LH:267
end_of_record
SF:/home/peter/Documents/rust/rust-load-tester/endpoint_tester/src/main.rs
FN:2,_RNvCsj4S3alzkeWT_15endpoint_tester4main
FN:2,_RNCNvCsj4S3alzkeWT_15endpoint_tester4main0B3_
FN:2,_RNCNvCsgiHP7YBDU3g_15endpoint_tester4main0B3_
FN:2,_RNvCsgiHP7YBDU3g_15endpoint_tester4main
FNDA:0,_RNvCsj4S3alzkeWT_15endpoint_tester4main
FNDA:0,_RNCNvCsj4S3alzkeWT_15endpoint_tester4main0B3_
FNDA:0,_RNCNvCsgiHP7YBDU3g_15endpoint_tester4main0B3_
FNDA:0,_RNvCsgiHP7YBDU3g_15endpoint_tester4main
FNF:2
FNH:0
DA:2,0
DA:3,0
DA:4,0
BRF:0
BRH:0
LF:5
LH:0
end_of_record